; Function Attrs: mustprogress uwtable
define void @_ZN2cv4UMat20updateContinuityFlagEv(ptr noundef nonnull align 8 captures(none) dereferenceable(80) %0) local_unnamed_addr #4 align 2 {
  %2 = load i32, ptr %0, align 8, !tbaa !43
  %3 = getelementptr inbounds nuw i8, ptr %0, i64 4
  %4 = load i32, ptr %3, align 4, !tbaa !58
  %5 = getelementptr inbounds nuw i8, ptr %0, i64 48
  %6 = load ptr, ptr %5, align 8, !tbaa !61
  %7 = getelementptr inbounds nuw i8, ptr %0, i64 56
  %8 = load ptr, ptr %7, align 8, !tbaa !67
  %9 = tail call noundef i32 @_ZN2cv20updateContinuityFlagEiiPKiPKm(i32 noundef %2, i32 noundef %4, ptr noundef %6, ptr noundef %8)
  store i32 %9, ptr %0, align 8, !tbaa !43
  ret void
}